target datalayout = "e-m:e-p270:32:32-p271:32:32-p272:64:64-i64:64-i128:128-f80:128-n8:16:32:64-S128"
target triple = "x86_64-pc-linux-gnu"

%"class.sat::literal" = type { i32 }
%"class.sat::bcd" = type { ptr, %class.ptr_vector, %class.svector, %class.svector, %class.svector, %class.svector, %class.ptr_vector, %class.svector.1, %class.svector.3, %class.svector.3 }
%class.svector = type { %class.vector.0 }
%class.vector.0 = type { ptr }
%class.ptr_vector = type { %class.vector }
%class.vector = type { ptr }
%class.svector.1 = type { %class.vector.2 }
%class.vector.2 = type { ptr }
%class.svector.3 = type { %class.vector.4 }
%class.vector.4 = type { ptr }
%"class.sat::clause" = type { i32, i32, i32, %class.approx_set_tpl, i32, [0 x %"class.sat::literal"] }
%class.approx_set_tpl = type { i32 }

; Function Attrs: mustprogress nounwind uwtable
define linkonce_odr hidden noundef i32 @_ZNK6vectorIPN3sat6clauseELb0EjE8capacityEv(ptr noundef nonnull align 8 dereferenceable(8) %0) #4 comdat align 2 {
  %2 = alloca i32, align 4
  %3 = alloca ptr, align 8
  store ptr %0, ptr %3, align 8, !tbaa !37
  %4 = load ptr, ptr %3, align 8
  %5 = getelementptr inbounds nuw %class.vector, ptr %4, i32 0, i32 0
  %6 = load ptr, ptr %5, align 8, !tbaa !81
  %7 = icmp eq ptr %6, null
  br i1 %7, label %8, label %9

8:                                                ; preds = %1
  store i32 0, ptr %2, align 4
  br label %14

9:                                                ; preds = %1
  %10 = getelementptr inbounds nuw %class.vector, ptr %4, i32 0, i32 0
  %11 = load ptr, ptr %10, align 8, !tbaa !81
  %12 = getelementptr inbounds i32, ptr %11, i64 -2
  %13 = load i32, ptr %12, align 4, !tbaa !51
  store i32 %13, ptr %2, align 4
  br label %14

14:                                               ; preds = %9, %8
  %15 = load i32, ptr %2, align 4
  ret i32 %15
}

; Function Attrs: mustprogress nounwind uwtable
define linkonce_odr hidden void @_ZN6vectorIPN3sat6clauseELb0EjE6shrinkEj(ptr noundef nonnull align 8 dereferenceable(8) %0, i32 noundef %1) #4 comdat align 2 {
  %3 = alloca ptr, align 8
  %4 = alloca i32, align 4
  store ptr %0, ptr %3, align 8, !tbaa !37
  store i32 %1, ptr %4, align 4, !tbaa !51
  %5 = load ptr, ptr %3, align 8
  %6 = getelementptr inbounds nuw %class.vector, ptr %5, i32 0, i32 0
  %7 = load ptr, ptr %6, align 8, !tbaa !81
  %8 = icmp ne ptr %7, null
  br i1 %8, label %9, label %14

9:                                                ; preds = %2
  %10 = load i32, ptr %4, align 4, !tbaa !51
  %11 = getelementptr inbounds nuw %class.vector, ptr %5, i32 0, i32 0
  %12 = load ptr, ptr %11, align 8, !tbaa !81
  %13 = getelementptr inbounds i32, ptr %12, i64 -1
  store i32 %10, ptr %13, align 4, !tbaa !51
  br label %15

14:                                               ; preds = %2
  br label %15

15:                                               ; preds = %14, %9
  ret void
}

; Function Attrs: mustprogress uwtable
define linkonce_odr hidden void @_ZN6vectorIPN3sat6clauseELb0EjE6resizeIS2_EEvjT_z(ptr noundef nonnull align 8 dereferenceable(8) %0, i32 noundef %1, ptr noundef %2, ...) #5 comdat align 2 {
  %4 = alloca ptr, align 8
  %5 = alloca i32, align 4
  %6 = alloca ptr, align 8
  %7 = alloca i32, align 4
  %8 = alloca i32, align 4
  %9 = alloca ptr, align 8
  %10 = alloca ptr, align 8
  store ptr %0, ptr %4, align 8, !tbaa !37
  store i32 %1, ptr %5, align 4, !tbaa !51
  store ptr %2, ptr %6, align 8, !tbaa !48
  %11 = load ptr, ptr %4, align 8
  call void @llvm.lifetime.start.p0(i64 4, ptr %7) #3
  %12 = call noundef i32 @_ZNK6vectorIPN3sat6clauseELb0EjE4sizeEv(ptr noundef nonnull align 8 dereferenceable(8) %11)
  store i32 %12, ptr %7, align 4, !tbaa !51
  %13 = load i32, ptr %5, align 4, !tbaa !51
  %14 = load i32, ptr %7, align 4, !tbaa !51
  %15 = icmp ule i32 %13, %14
  br i1 %15, label %16, label %18

16:                                               ; preds = %3
  %17 = load i32, ptr %5, align 4, !tbaa !51
  call void @_ZN6vectorIPN3sat6clauseELb0EjE6shrinkEj(ptr noundef nonnull align 8 dereferenceable(8) %11, i32 noundef %17)
  store i32 1, ptr %8, align 4
  br label %50

18:                                               ; preds = %3
  br label %19

19:                                               ; preds = %23, %18
  %20 = load i32, ptr %5, align 4, !tbaa !51
  %21 = call noundef i32 @_ZNK6vectorIPN3sat6clauseELb0EjE8capacityEv(ptr noundef nonnull align 8 dereferenceable(8) %11)
  %22 = icmp ugt i32 %20, %21
  br i1 %22, label %23, label %24

23:                                               ; preds = %19
  call void @_ZN6vectorIPN3sat6clauseELb0EjE13expand_vectorEv(ptr noundef nonnull align 8 dereferenceable(8) %11)
  br label %19, !llvm.loop !365

24:                                               ; preds = %19
  %25 = load i32, ptr %5, align 4, !tbaa !51
  %26 = getelementptr inbounds nuw %class.vector, ptr %11, i32 0, i32 0
  %27 = load ptr, ptr %26, align 8, !tbaa !81
  %28 = getelementptr inbounds i32, ptr %27, i64 -1
  store i32 %25, ptr %28, align 4, !tbaa !51
  call void @llvm.lifetime.start.p0(i64 8, ptr %9) #3
  %29 = getelementptr inbounds nuw %class.vector, ptr %11, i32 0, i32 0
  %30 = load ptr, ptr %29, align 8, !tbaa !81
  %31 = load i32, ptr %7, align 4, !tbaa !51
  %32 = zext i32 %31 to i64
  %33 = getelementptr inbounds nuw ptr, ptr %30, i64 %32
  store ptr %33, ptr %9, align 8, !tbaa !47
  call void @llvm.lifetime.start.p0(i64 8, ptr %10) #3
  %34 = getelementptr inbounds nuw %class.vector, ptr %11, i32 0, i32 0
  %35 = load ptr, ptr %34, align 8, !tbaa !81
  %36 = load i32, ptr %5, align 4, !tbaa !51
  %37 = zext i32 %36 to i64
  %38 = getelementptr inbounds nuw ptr, ptr %35, i64 %37
  store ptr %38, ptr %10, align 8, !tbaa !47
  br label %39

39:                                               ; preds = %46, %24
  %40 = load ptr, ptr %9, align 8, !tbaa !47
  %41 = load ptr, ptr %10, align 8, !tbaa !47
  %42 = icmp ne ptr %40, %41
  br i1 %42, label %43, label %49

43:                                               ; preds = %39
  %44 = load ptr, ptr %9, align 8, !tbaa !47
  %45 = load ptr, ptr %6, align 8, !tbaa !48
  store ptr %45, ptr %44, align 8, !tbaa !48
  br label %46

46:                                               ; preds = %43
  %47 = load ptr, ptr %9, align 8, !tbaa !47
  %48 = getelementptr inbounds nuw ptr, ptr %47, i32 1
  store ptr %48, ptr %9, align 8, !tbaa !47
  br label %39, !llvm.loop !366

49:                                               ; preds = %39
  call void @llvm.lifetime.end.p0(i64 8, ptr %10) #3
  call void @llvm.lifetime.end.p0(i64 8, ptr %9) #3
  store i32 0, ptr %8, align 4
  br label %50

50:                                               ; preds = %49, %16
  call void @llvm.lifetime.end.p0(i64 4, ptr %7) #3
  %51 = load i32, ptr %8, align 4
  switch i32 %51, label %53 [
    i32 0, label %52
    i32 1, label %52
  ]

52:                                               ; preds = %50, %50
  ret void

53:                                               ; preds = %50
  unreachable
}

; Function Attrs: mustprogress nounwind uwtable
define linkonce_odr hidden noundef i32 @_ZNK6vectorIPN3sat6clauseELb0EjE4sizeEv(ptr noundef nonnull align 8 dereferenceable(8) %0) #4 comdat align 2 {
  %2 = alloca i32, align 4
  %3 = alloca ptr, align 8
  store ptr %0, ptr %3, align 8, !tbaa !37
  %4 = load ptr, ptr %3, align 8
  %5 = getelementptr inbounds nuw %class.vector, ptr %4, i32 0, i32 0
  %6 = load ptr, ptr %5, align 8, !tbaa !81
  %7 = icmp eq ptr %6, null
  br i1 %7, label %8, label %9

8:                                                ; preds = %1
  store i32 0, ptr %2, align 4
  br label %14

9:                                                ; preds = %1
  %10 = getelementptr inbounds nuw %class.vector, ptr %4, i32 0, i32 0
  %11 = load ptr, ptr %10, align 8, !tbaa !81
  %12 = getelementptr inbounds i32, ptr %11, i64 -1
  %13 = load i32, ptr %12, align 4, !tbaa !51
  store i32 %13, ptr %2, align 4
  br label %14

14:                                               ; preds = %9, %8
  %15 = load i32, ptr %2, align 4
  ret i32 %15
}

; Function Attrs: mustprogress uwtable
define linkonce_odr hidden void @_ZN6vectorIPN3sat6clauseELb0EjE4setxEjRKS2_S5_(ptr noundef nonnull align 8 dereferenceable(8) %0, i32 noundef %1, ptr noundef nonnull align 8 dereferenceable(8) %2, ptr noundef nonnull align 8 dereferenceable(8) %3) #5 comdat align 2 {
  %5 = alloca ptr, align 8
  %6 = alloca i32, align 4
  %7 = alloca ptr, align 8
  %8 = alloca ptr, align 8
  store ptr %0, ptr %5, align 8, !tbaa !37
  store i32 %1, ptr %6, align 4, !tbaa !51
  store ptr %2, ptr %7, align 8, !tbaa !47
  store ptr %3, ptr %8, align 8, !tbaa !47
  %9 = load ptr, ptr %5, align 8
  %10 = load i32, ptr %6, align 4, !tbaa !51
  %11 = call noundef i32 @_ZNK6vectorIPN3sat6clauseELb0EjE4sizeEv(ptr noundef nonnull align 8 dereferenceable(8) %9)
  %12 = icmp uge i32 %10, %11
  br i1 %12, label %13, label %18

13:                                               ; preds = %4
  %14 = load i32, ptr %6, align 4, !tbaa !51
  %15 = add i32 %14, 1
  %16 = load ptr, ptr %8, align 8, !tbaa !47
  %17 = load ptr, ptr %16, align 8, !tbaa !48
  call void (ptr, i32, ptr, ...) @_ZN6vectorIPN3sat6clauseELb0EjE6resizeIS2_EEvjT_z(ptr noundef nonnull align 8 dereferenceable(8) %9, i32 noundef %15, ptr noundef %17)
  br label %18

18:                                               ; preds = %13, %4
  %19 = load ptr, ptr %7, align 8, !tbaa !47
  %20 = load ptr, ptr %19, align 8, !tbaa !48
  %21 = getelementptr inbounds nuw %class.vector, ptr %9, i32 0, i32 0
  %22 = load ptr, ptr %21, align 8, !tbaa !81
  %23 = load i32, ptr %6, align 4, !tbaa !51
  %24 = zext i32 %23 to i64
  %25 = getelementptr inbounds nuw ptr, ptr %22, i64 %24
  store ptr %20, ptr %25, align 8, !tbaa !48
  ret void
}

; Function Attrs: mustprogress nounwind uwtable
define linkonce_odr hidden noundef i32 @_ZNK3sat6clause2idEv(ptr noundef nonnull align 4 dereferenceable(20) %0) #4 comdat align 2 {
  %2 = alloca ptr, align 8
  store ptr %0, ptr %2, align 8, !tbaa !48
  %3 = load ptr, ptr %2, align 8
  %4 = getelementptr inbounds nuw %"class.sat::clause", ptr %3, i32 0, i32 0
  %5 = load i32, ptr %4, align 4, !tbaa !221
  ret i32 %5
}

; Function Attrs: mustprogress uwtable
define hidden void @_ZN3sat3bcd15register_clauseEPNS_6clauseE(ptr noundef nonnull align 8 dereferenceable(80) %0, ptr noundef %1) #5 align 2 {
  %3 = alloca ptr, align 8
  %4 = alloca ptr, align 8
  %5 = alloca ptr, align 8
  store ptr %0, ptr %3, align 8, !tbaa !3
  store ptr %1, ptr %4, align 8, !tbaa !48
  %6 = load ptr, ptr %3, align 8
  %7 = getelementptr inbounds nuw %"class.sat::bcd", ptr %6, i32 0, i32 1
  %8 = load ptr, ptr %4, align 8, !tbaa !48
  %9 = call noundef i32 @_ZNK3sat6clause2idEv(ptr noundef nonnull align 4 dereferenceable(20) %8)
  call void @llvm.lifetime.start.p0(i64 8, ptr %5) #3
  store ptr null, ptr %5, align 8, !tbaa !48
  call void @_ZN6vectorIPN3sat6clauseELb0EjE4setxEjRKS2_S5_(ptr noundef nonnull align 8 dereferenceable(8) %7, i32 noundef %9, ptr noundef nonnull align 8 dereferenceable(8) %4, ptr noundef nonnull align 8 dereferenceable(8) %5)
  call void @llvm.lifetime.end.p0(i64 8, ptr %5) #3
  ret void
}