; Function Attrs: mustprogress uwtable
define hidden void @_ZN3sat3bcd15register_clauseEPNS_6clauseE(ptr noundef nonnull align 8 dereferenceable(80) %0, ptr noundef %1) local_unnamed_addr #5 align 2 {
  %3 = getelementptr inbounds nuw i8, ptr %0, i64 8
  %4 = load i32, ptr %1, align 4, !tbaa !62
  %5 = load ptr, ptr %3, align 8, !tbaa !23
  %6 = icmp eq ptr %5, null
  br i1 %6, label %_ZNK6vectorIPN3sat6clauseELb0EjE4sizeEv.exit.i.i, label %_ZNK6vectorIPN3sat6clauseELb0EjE4sizeEv.exit.i

_ZNK6vectorIPN3sat6clauseELb0EjE4sizeEv.exit.i:   ; preds = %2
  %7 = getelementptr inbounds i8, ptr %5, i64 -4
  %8 = load i32, ptr %7, align 4, !tbaa !24
  %.not.i = icmp ult i32 %4, %8
  br i1 %.not.i, label %_ZN6vectorIPN3sat6clauseELb0EjE4setxEjRKS2_S5_.exit, label %_ZNK6vectorIPN3sat6clauseELb0EjE4sizeEv.exit.thread.i.i

_ZNK6vectorIPN3sat6clauseELb0EjE4sizeEv.exit.i.i: ; preds = %2
  %9 = add i32 %4, 1
  %.not.not.i.i = icmp ne i32 %9, 0
  tail call void @llvm.assume(i1 %.not.not.i.i)
  br label %thread-pre-split.i.i.preheader

_ZNK6vectorIPN3sat6clauseELb0EjE4sizeEv.exit.thread.i.i: ; preds = %_ZNK6vectorIPN3sat6clauseELb0EjE4sizeEv.exit.i
  %10 = add i32 %4, 1
  %.not16.i.i = icmp ugt i32 %10, %8
  br i1 %.not16.i.i, label %thread-pre-split.i.i.preheader, label %11

thread-pre-split.i.i.preheader:                   ; preds = %_ZNK6vectorIPN3sat6clauseELb0EjE4sizeEv.exit.i.i, %_ZNK6vectorIPN3sat6clauseELb0EjE4sizeEv.exit.thread.i.i
  %.ph = phi ptr [ %5, %_ZNK6vectorIPN3sat6clauseELb0EjE4sizeEv.exit.thread.i.i ], [ null, %_ZNK6vectorIPN3sat6clauseELb0EjE4sizeEv.exit.i.i ]
  %.ph3 = phi i32 [ %10, %_ZNK6vectorIPN3sat6clauseELb0EjE4sizeEv.exit.thread.i.i ], [ %9, %_ZNK6vectorIPN3sat6clauseELb0EjE4sizeEv.exit.i.i ]
  %.0.i17.i.i.ph = phi i32 [ %8, %_ZNK6vectorIPN3sat6clauseELb0EjE4sizeEv.exit.thread.i.i ], [ 0, %_ZNK6vectorIPN3sat6clauseELb0EjE4sizeEv.exit.i.i ]
  br label %thread-pre-split.i.i

11:                                               ; preds = %_ZNK6vectorIPN3sat6clauseELb0EjE4sizeEv.exit.thread.i.i
  store i32 %10, ptr %7, align 4, !tbaa !24
  br label %_ZN6vectorIPN3sat6clauseELb0EjE4setxEjRKS2_S5_.exit

thread-pre-split.i.i:                             ; preds = %thread-pre-split.i.i.preheader, %_ZNK6vectorIPN3sat6clauseELb0EjE8capacityEv.exit.thread.i.i
  %12 = phi ptr [ %.pr.pre.i.i, %_ZNK6vectorIPN3sat6clauseELb0EjE8capacityEv.exit.thread.i.i ], [ %.ph, %thread-pre-split.i.i.preheader ]
  %13 = icmp eq ptr %12, null
  br i1 %13, label %_ZNK6vectorIPN3sat6clauseELb0EjE8capacityEv.exit.thread.i.i, label %_ZNK6vectorIPN3sat6clauseELb0EjE8capacityEv.exit.i.i

_ZNK6vectorIPN3sat6clauseELb0EjE8capacityEv.exit.i.i: ; preds = %thread-pre-split.i.i
  %14 = getelementptr inbounds i8, ptr %12, i64 -8
  %15 = load i32, ptr %14, align 4, !tbaa !24
  %16 = icmp ugt i32 %.ph3, %15
  br i1 %16, label %_ZNK6vectorIPN3sat6clauseELb0EjE8capacityEv.exit.thread.i.i, label %17

_ZNK6vectorIPN3sat6clauseELb0EjE8capacityEv.exit.thread.i.i: ; preds = %_ZNK6vectorIPN3sat6clauseELb0EjE8capacityEv.exit.i.i, %thread-pre-split.i.i
  tail call void @_ZN6vectorIPN3sat6clauseELb0EjE13expand_vectorEv(ptr noundef nonnull align 8 dereferenceable(8) %3)
  %.pr.pre.i.i = load ptr, ptr %3, align 8, !tbaa !23
  br label %thread-pre-split.i.i, !llvm.loop !123

17:                                               ; preds = %_ZNK6vectorIPN3sat6clauseELb0EjE8capacityEv.exit.i.i
  %18 = getelementptr inbounds i8, ptr %12, i64 -4
  store i32 %.ph3, ptr %18, align 4, !tbaa !24
  %.not1319.i.i = icmp eq i32 %.0.i17.i.i.ph, %.ph3
  br i1 %.not1319.i.i, label %_ZN6vectorIPN3sat6clauseELb0EjE4setxEjRKS2_S5_.exit, label %.lr.ph.preheader.i.i

.lr.ph.preheader.i.i:                             ; preds = %17
  %19 = zext i32 %.ph3 to i64
  %20 = zext i32 %.0.i17.i.i.ph to i64
  %21 = getelementptr ptr, ptr %12, i64 %20
  %22 = shl nuw nsw i64 %19, 3
  %23 = add nsw i64 %22, -8
  %24 = shl nuw nsw i64 %20, 3
  %25 = sub nsw i64 %23, %24
  %26 = add nsw i64 %25, 8
  tail call void @llvm.memset.p0.i64(ptr align 8 %21, i8 0, i64 %26, i1 false), !tbaa !39
  br label %_ZN6vectorIPN3sat6clauseELb0EjE4setxEjRKS2_S5_.exit

_ZN6vectorIPN3sat6clauseELb0EjE4setxEjRKS2_S5_.exit: ; preds = %.lr.ph.preheader.i.i, %_ZNK6vectorIPN3sat6clauseELb0EjE4sizeEv.exit.i, %11, %17
  %27 = phi ptr [ %12, %17 ], [ %5, %11 ], [ %5, %_ZNK6vectorIPN3sat6clauseELb0EjE4sizeEv.exit.i ], [ %12, %.lr.ph.preheader.i.i ]
  %28 = zext i32 %4 to i64
  %29 = getelementptr inbounds nuw ptr, ptr %27, i64 %28
  store ptr %1, ptr %29, align 8, !tbaa !39
  ret void
}